target datalayout = "e-m:e-p270:32:32-p271:32:32-p272:64:64-i64:64-i128:128-f80:128-n8:16:32:64-S128"
target triple = "x86_64-pc-linux-gnu"

%struct.ltlNode_t = type { i32, ptr, ptr, ptr, ptr }

; Function Attrs: nounwind uwtable
define i32 @isNonTemporalSubformula(ptr noundef %0) #0 {
  %2 = alloca i32, align 4
  %3 = alloca ptr, align 8
  store ptr %0, ptr %3, align 8, !tbaa !7
  %4 = load ptr, ptr %3, align 8, !tbaa !7
  %5 = getelementptr inbounds nuw %struct.ltlNode_t, ptr %4, i32 0, i32 0
  %6 = load i32, ptr %5, align 8, !tbaa !10
  switch i32 %6, label %28 [
    i32 0, label %7
    i32 1, label %7
    i32 3, label %7
    i32 2, label %22
    i32 8, label %27
  ]

7:                                                ; preds = %1, %1, %1
  %8 = load ptr, ptr %3, align 8, !tbaa !7
  %9 = getelementptr inbounds nuw %struct.ltlNode_t, ptr %8, i32 0, i32 3
  %10 = load ptr, ptr %9, align 8, !tbaa !16
  %11 = call i32 @isNonTemporalSubformula(ptr noundef %10)
  %12 = icmp ne i32 %11, 0
  br i1 %12, label %13, label %19

13:                                               ; preds = %7
  %14 = load ptr, ptr %3, align 8, !tbaa !7
  %15 = getelementptr inbounds nuw %struct.ltlNode_t, ptr %14, i32 0, i32 4
  %16 = load ptr, ptr %15, align 8, !tbaa !17
  %17 = call i32 @isNonTemporalSubformula(ptr noundef %16)
  %18 = icmp ne i32 %17, 0
  br label %19

19:                                               ; preds = %13, %7
  %20 = phi i1 [ false, %7 ], [ %18, %13 ]
  %21 = zext i1 %20 to i32
  store i32 %21, ptr %2, align 4
  br label %29

22:                                               ; preds = %1
  %23 = load ptr, ptr %3, align 8, !tbaa !7
  %24 = getelementptr inbounds nuw %struct.ltlNode_t, ptr %23, i32 0, i32 3
  %25 = load ptr, ptr %24, align 8, !tbaa !16
  %26 = call i32 @isNonTemporalSubformula(ptr noundef %25)
  store i32 %26, ptr %2, align 4
  br label %29

27:                                               ; preds = %1
  store i32 1, ptr %2, align 4
  br label %29

28:                                               ; preds = %1
  store i32 0, ptr %2, align 4
  br label %29

29:                                               ; preds = %28, %27, %22, %19
  %30 = load i32, ptr %2, align 4
  ret i32 %30
}