; Function Attrs: nofree nosync nounwind memory(read, inaccessiblemem: none) uwtable
define range(i32 0, 2) i32 @isNonTemporalSubformula(ptr noundef readonly captures(none) %0) local_unnamed_addr #11 {
  br label %tailrecurse

tailrecurse:                                      ; preds = %tailrecurse.backedge, %1
  %.tr = phi ptr [ %0, %1 ], [ %.tr.be, %tailrecurse.backedge ]
  %2 = load i32, ptr %.tr, align 8, !tbaa !3
  switch i32 %2, label %.loopexit [
    i32 0, label %3
    i32 1, label %3
    i32 3, label %3
    i32 2, label %tailrecurse.backedge
    i32 8, label %.loopexit.loopexit
  ]

3:                                                ; preds = %tailrecurse, %tailrecurse, %tailrecurse
  %4 = getelementptr inbounds nuw i8, ptr %.tr, i64 24
  %5 = load ptr, ptr %4, align 8, !tbaa !46
  %6 = tail call i32 @isNonTemporalSubformula(ptr noundef %5)
  %.not = icmp eq i32 %6, 0
  br i1 %.not, label %.loopexit, label %tailrecurse.backedge

tailrecurse.backedge:                             ; preds = %3, %tailrecurse
  %.sink = phi i64 [ 24, %tailrecurse ], [ 32, %3 ]
  %7 = getelementptr inbounds nuw i8, ptr %.tr, i64 %.sink
  %.tr.be = load ptr, ptr %7, align 8, !tbaa !50
  br label %tailrecurse

.loopexit.loopexit:                               ; preds = %tailrecurse
  br label %.loopexit

.loopexit:                                        ; preds = %3, %tailrecurse, %.loopexit.loopexit
  %.0 = phi i32 [ 1, %.loopexit.loopexit ], [ 0, %tailrecurse ], [ 0, %3 ]
  ret i32 %.0
}